target datalayout = "e-m:e-p270:32:32-p271:32:32-p272:64:64-i64:64-i128:128-f80:128-n8:16:32:64-S128"
target triple = "x86_64-pc-linux-gnu"

%struct.pmix_mca_base_component_2_1_0_t = type { i32, i32, i32, [16 x i8], i32, i32, i32, [32 x i8], i32, i32, i32, [64 x i8], i32, i32, i32, ptr, ptr, ptr, ptr, [32 x i8] }
%struct.pmix_class_t = type { ptr, ptr, ptr, ptr, i32, i32, ptr, ptr, i64 }
%union.pthread_mutex_t = type { %struct.__pthread_mutex_s }
%struct.__pthread_mutex_s = type { i32, i32, i32, i32, i32, i16, i16, %struct.__pthread_internal_list }
%struct.__pthread_internal_list = type { ptr, ptr }
%struct.pmix_tma = type { ptr, ptr, ptr, ptr, ptr, ptr, ptr, ptr }
%struct.pmix_list_t = type { %struct.pmix_object_t, %struct.pmix_list_item_t, i64 }
%struct.pmix_object_t = type { %union.pthread_mutex_t, ptr, i32, %struct.pmix_tma }
%struct.pmix_list_item_t = type { %struct.pmix_object_t, ptr, ptr, i32 }
%struct.pmix_psec_globals_t = type { %struct.pmix_list_t, i8, i8 }
%struct.pmix_psec_base_active_module_t = type { %struct.pmix_list_item_t, i32, ptr, ptr }
%struct.pmix_psec_base_component_t = type { %struct.pmix_mca_base_component_2_1_0_t, i32, ptr, ptr, ptr }

@.str.4 = private unnamed_addr constant [21 x i8] c"pthread_mutex_lock()\00", align 1

; Function Attrs: inlinehint nounwind uwtable
define internal void @pmix_tma_free(ptr noundef %0, ptr noundef %1) #2 {
  %3 = alloca ptr, align 8
  %4 = alloca ptr, align 8
  store ptr %0, ptr %3, align 8, !tbaa !41
  store ptr %1, ptr %4, align 8, !tbaa !51
  %5 = load ptr, ptr %3, align 8, !tbaa !41
  %6 = icmp ne ptr null, %5
  br i1 %6, label %7, label %13

7:                                                ; preds = %2
  %8 = load ptr, ptr %3, align 8, !tbaa !41
  %9 = getelementptr inbounds nuw %struct.pmix_tma, ptr %8, i32 0, i32 5
  %10 = load ptr, ptr %9, align 8, !tbaa !61
  %11 = load ptr, ptr %3, align 8, !tbaa !41
  %12 = load ptr, ptr %4, align 8, !tbaa !51
  call void %10(ptr noundef %11, ptr noundef %12)
  br label %15

13:                                               ; preds = %2
  %14 = load ptr, ptr %4, align 8, !tbaa !51
  call void @free(ptr noundef %14) #9
  br label %15

15:                                               ; preds = %13, %7
  ret void
}

; Function Attrs: inlinehint nounwind uwtable
define internal void @pmix_obj_run_destructors(ptr noundef %0) #2 {
  %2 = alloca ptr, align 8
  %3 = alloca ptr, align 8
  store ptr %0, ptr %2, align 8, !tbaa !36
  call void @llvm.lifetime.start.p0(i64 8, ptr %3) #9
  %4 = load ptr, ptr %2, align 8, !tbaa !36
  %5 = getelementptr inbounds nuw %struct.pmix_object_t, ptr %4, i32 0, i32 1
  %6 = load ptr, ptr %5, align 8, !tbaa !21
  %7 = getelementptr inbounds nuw %struct.pmix_class_t, ptr %6, i32 0, i32 7
  %8 = load ptr, ptr %7, align 8, !tbaa !59
  store ptr %8, ptr %3, align 8, !tbaa !51
  br label %9

9:                                                ; preds = %13, %1
  %10 = load ptr, ptr %3, align 8, !tbaa !51
  %11 = load ptr, ptr %10, align 8, !tbaa !51
  %12 = icmp ne ptr null, %11
  br i1 %12, label %13, label %19

13:                                               ; preds = %9
  %14 = load ptr, ptr %3, align 8, !tbaa !51
  %15 = load ptr, ptr %14, align 8, !tbaa !51
  %16 = load ptr, ptr %2, align 8, !tbaa !36
  call void %15(ptr noundef %16)
  %17 = load ptr, ptr %3, align 8, !tbaa !51
  %18 = getelementptr inbounds nuw ptr, ptr %17, i32 1
  store ptr %18, ptr %3, align 8, !tbaa !51
  br label %9, !llvm.loop !60

19:                                               ; preds = %9
  call void @llvm.lifetime.end.p0(i64 8, ptr %3) #9
  ret void
}

; Function Attrs: alwaysinline nounwind uwtable
define internal i32 @pmix_obj_update(ptr noundef %0, i32 noundef %1) #5 {
  %3 = alloca ptr, align 8
  %4 = alloca i32, align 4
  %5 = alloca i32, align 4
  store ptr %0, ptr %3, align 8, !tbaa !36
  store i32 %1, ptr %4, align 4, !tbaa !3
  call void @llvm.lifetime.start.p0(i64 4, ptr %5) #9
  %6 = load ptr, ptr %3, align 8, !tbaa !36
  %7 = getelementptr inbounds nuw %struct.pmix_object_t, ptr %6, i32 0, i32 0
  %8 = call i32 @pthread_mutex_lock(ptr noundef %7) #9
  store i32 %8, ptr %5, align 4, !tbaa !3
  %9 = load i32, ptr %5, align 4, !tbaa !3
  %10 = icmp eq i32 %9, 35
  br i1 %10, label %11, label %14

11:                                               ; preds = %2
  %12 = load i32, ptr %5, align 4, !tbaa !3
  %13 = call ptr @__errno_location() #10
  store i32 %12, ptr %13, align 4, !tbaa !3
  call void @perror(ptr noundef @.str.4)
  call void @abort() #11
  unreachable

14:                                               ; preds = %2
  %15 = load i32, ptr %4, align 4, !tbaa !3
  %16 = load ptr, ptr %3, align 8, !tbaa !36
  %17 = getelementptr inbounds nuw %struct.pmix_object_t, ptr %16, i32 0, i32 2
  %18 = load i32, ptr %17, align 8, !tbaa !22
  %19 = add nsw i32 %18, %15
  store i32 %19, ptr %17, align 8, !tbaa !22
  store i32 %19, ptr %5, align 4, !tbaa !3
  %20 = load ptr, ptr %3, align 8, !tbaa !36
  %21 = getelementptr inbounds nuw %struct.pmix_object_t, ptr %20, i32 0, i32 0
  %22 = call i32 @pthread_mutex_unlock(ptr noundef %21) #9
  %23 = load i32, ptr %5, align 4, !tbaa !3
  call void @llvm.lifetime.end.p0(i64 4, ptr %5) #9
  ret i32 %23
}

; Function Attrs: inlinehint nounwind uwtable
define internal ptr @pmix_list_remove_item(ptr noundef %0, ptr noundef %1) #2 {
  %3 = alloca ptr, align 8
  %4 = alloca ptr, align 8
  store ptr %0, ptr %3, align 8, !tbaa !54
  store ptr %1, ptr %4, align 8, !tbaa !56
  %5 = load ptr, ptr %4, align 8, !tbaa !56
  %6 = getelementptr inbounds nuw %struct.pmix_list_item_t, ptr %5, i32 0, i32 1
  %7 = load ptr, ptr %6, align 8, !tbaa !29
  %8 = load ptr, ptr %4, align 8, !tbaa !56
  %9 = getelementptr inbounds nuw %struct.pmix_list_item_t, ptr %8, i32 0, i32 2
  %10 = load ptr, ptr %9, align 8, !tbaa !57
  %11 = getelementptr inbounds nuw %struct.pmix_list_item_t, ptr %10, i32 0, i32 1
  store volatile ptr %7, ptr %11, align 8, !tbaa !29
  %12 = load ptr, ptr %4, align 8, !tbaa !56
  %13 = getelementptr inbounds nuw %struct.pmix_list_item_t, ptr %12, i32 0, i32 2
  %14 = load ptr, ptr %13, align 8, !tbaa !57
  %15 = load ptr, ptr %4, align 8, !tbaa !56
  %16 = getelementptr inbounds nuw %struct.pmix_list_item_t, ptr %15, i32 0, i32 1
  %17 = load ptr, ptr %16, align 8, !tbaa !29
  %18 = getelementptr inbounds nuw %struct.pmix_list_item_t, ptr %17, i32 0, i32 2
  store volatile ptr %14, ptr %18, align 8, !tbaa !57
  %19 = load ptr, ptr %3, align 8, !tbaa !54
  %20 = getelementptr inbounds nuw %struct.pmix_list_t, ptr %19, i32 0, i32 2
  %21 = load volatile i64, ptr %20, align 8, !tbaa !58
  %22 = add i64 %21, -1
  store volatile i64 %22, ptr %20, align 8, !tbaa !58
  %23 = load ptr, ptr %4, align 8, !tbaa !56
  %24 = getelementptr inbounds nuw %struct.pmix_list_item_t, ptr %23, i32 0, i32 2
  %25 = load ptr, ptr %24, align 8, !tbaa !57
  ret ptr %25
}

; Function Attrs: nounwind uwtable
define internal i32 @pmix_psec_close() #0 {
  %1 = alloca i32, align 4
  %2 = alloca ptr, align 8
  %3 = alloca ptr, align 8
  %4 = alloca i32, align 4
  %5 = alloca ptr, align 8
  call void @llvm.lifetime.start.p0(i64 8, ptr %2) #9
  call void @llvm.lifetime.start.p0(i64 8, ptr %3) #9
  %6 = load i8, ptr getelementptr inbounds nuw (%struct.pmix_psec_globals_t, ptr @pmix_psec_globals, i32 0, i32 1), align 8, !tbaa !7, !range !23, !noundef !24
  %7 = trunc i8 %6 to i1
  br i1 %7, label %9, label %8

8:                                                ; preds = %0
  store i32 0, ptr %1, align 4
  store i32 1, ptr %4, align 4
  br label %66

9:                                                ; preds = %0
  store i8 0, ptr getelementptr inbounds nuw (%struct.pmix_psec_globals_t, ptr @pmix_psec_globals, i32 0, i32 1), align 8, !tbaa !7
  store i8 0, ptr getelementptr inbounds nuw (%struct.pmix_psec_globals_t, ptr @pmix_psec_globals, i32 0, i32 2), align 1, !tbaa !25
  %10 = load ptr, ptr getelementptr inbounds nuw (%struct.pmix_list_item_t, ptr getelementptr inbounds nuw (%struct.pmix_list_t, ptr @pmix_psec_globals, i32 0, i32 1), i32 0, i32 1), align 8, !tbaa !26
  store ptr %10, ptr %2, align 8, !tbaa !27
  %11 = load ptr, ptr %2, align 8, !tbaa !27
  %12 = getelementptr inbounds nuw %struct.pmix_list_item_t, ptr %11, i32 0, i32 1
  %13 = load ptr, ptr %12, align 8, !tbaa !29
  store ptr %13, ptr %3, align 8, !tbaa !27
  br label %14

14:                                               ; preds = %56, %9
  %15 = load ptr, ptr %2, align 8, !tbaa !27
  %16 = icmp ne ptr %15, getelementptr inbounds nuw (%struct.pmix_list_t, ptr @pmix_psec_globals, i32 0, i32 1)
  br i1 %16, label %17, label %61

17:                                               ; preds = %14
  %18 = load ptr, ptr %2, align 8, !tbaa !27
  %19 = getelementptr inbounds nuw %struct.pmix_psec_base_active_module_t, ptr %18, i32 0, i32 0
  %20 = call ptr @pmix_list_remove_item(ptr noundef @pmix_psec_globals, ptr noundef %19)
  %21 = load ptr, ptr %2, align 8, !tbaa !27
  %22 = getelementptr inbounds nuw %struct.pmix_psec_base_active_module_t, ptr %21, i32 0, i32 3
  %23 = load ptr, ptr %22, align 8, !tbaa !30
  %24 = getelementptr inbounds nuw %struct.pmix_psec_base_component_t, ptr %23, i32 0, i32 3
  %25 = load ptr, ptr %24, align 8, !tbaa !33
  %26 = icmp ne ptr null, %25
  br i1 %26, label %27, label %33

27:                                               ; preds = %17
  %28 = load ptr, ptr %2, align 8, !tbaa !27
  %29 = getelementptr inbounds nuw %struct.pmix_psec_base_active_module_t, ptr %28, i32 0, i32 3
  %30 = load ptr, ptr %29, align 8, !tbaa !30
  %31 = getelementptr inbounds nuw %struct.pmix_psec_base_component_t, ptr %30, i32 0, i32 3
  %32 = load ptr, ptr %31, align 8, !tbaa !33
  call void %32()
  br label %33

33:                                               ; preds = %27, %17
  br label %34

34:                                               ; preds = %33
  call void @llvm.lifetime.start.p0(i64 8, ptr %5) #9
  %35 = load ptr, ptr %2, align 8, !tbaa !27
  store ptr %35, ptr %5, align 8, !tbaa !36
  %36 = load ptr, ptr %5, align 8, !tbaa !36
  %37 = call i32 @pmix_obj_update(ptr noundef %36, i32 noundef -1)
  %38 = icmp eq i32 0, %37
  br i1 %38, label %39, label %53

39:                                               ; preds = %34
  %40 = load ptr, ptr %5, align 8, !tbaa !36
  call void @pmix_obj_run_destructors(ptr noundef %40)
  %41 = load ptr, ptr %5, align 8, !tbaa !36
  %42 = getelementptr inbounds nuw %struct.pmix_object_t, ptr %41, i32 0, i32 3
  %43 = getelementptr inbounds nuw %struct.pmix_tma, ptr %42, i32 0, i32 5
  %44 = load ptr, ptr %43, align 8, !tbaa !38
  %45 = icmp ne ptr null, %44
  br i1 %45, label %46, label %50

46:                                               ; preds = %39
  %47 = load ptr, ptr %5, align 8, !tbaa !36
  %48 = getelementptr inbounds nuw %struct.pmix_object_t, ptr %47, i32 0, i32 3
  %49 = load ptr, ptr %2, align 8, !tbaa !27
  call void @pmix_tma_free(ptr noundef %48, ptr noundef %49)
  br label %52

50:                                               ; preds = %39
  %51 = load ptr, ptr %2, align 8, !tbaa !27
  call void @free(ptr noundef %51) #9
  br label %52

52:                                               ; preds = %50, %46
  store ptr null, ptr %2, align 8, !tbaa !27
  br label %53

53:                                               ; preds = %52, %34
  call void @llvm.lifetime.end.p0(i64 8, ptr %5) #9
  br label %54

54:                                               ; preds = %53
  br label %55

55:                                               ; preds = %54
  br label %56

56:                                               ; preds = %55
  %57 = load ptr, ptr %3, align 8, !tbaa !27
  store ptr %57, ptr %2, align 8, !tbaa !27
  %58 = load ptr, ptr %2, align 8, !tbaa !27
  %59 = getelementptr inbounds nuw %struct.pmix_list_item_t, ptr %58, i32 0, i32 1
  %60 = load ptr, ptr %59, align 8, !tbaa !29
  store ptr %60, ptr %3, align 8, !tbaa !27
  br label %14, !llvm.loop !39

61:                                               ; preds = %14
  br label %62

62:                                               ; preds = %61
  call void @pmix_obj_run_destructors(ptr noundef @pmix_psec_globals)
  br label %63

63:                                               ; preds = %62
  br label %64

64:                                               ; preds = %63
  %65 = call i32 @pmix_mca_base_framework_components_close(ptr noundef @pmix_psec_base_framework, ptr noundef null)
  store i32 %65, ptr %1, align 4
  store i32 1, ptr %4, align 4
  br label %66

66:                                               ; preds = %64, %8
  call void @llvm.lifetime.end.p0(i64 8, ptr %3) #9
  call void @llvm.lifetime.end.p0(i64 8, ptr %2) #9
  %67 = load i32, ptr %1, align 4
  ret i32 %67
}