; Function Attrs: nounwind uwtable
define internal i32 @pmix_psec_close() #0 {
  %1 = load i8, ptr getelementptr inbounds nuw (i8, ptr @pmix_psec_globals, i64 272), align 8, !tbaa !3, !range !27, !noundef !28
  %2 = trunc nuw i8 %1 to i1
  br i1 %2, label %3, label %49

3:                                                ; preds = %0
  store i8 0, ptr getelementptr inbounds nuw (i8, ptr @pmix_psec_globals, i64 272), align 8, !tbaa !3
  store i8 0, ptr getelementptr inbounds nuw (i8, ptr @pmix_psec_globals, i64 273), align 1, !tbaa !29
  %4 = load ptr, ptr getelementptr inbounds nuw (i8, ptr @pmix_psec_globals, i64 240), align 8, !tbaa !30
  %.not27 = icmp eq ptr %4, getelementptr inbounds nuw (i8, ptr @pmix_psec_globals, i64 120)
  br i1 %.not27, label %._crit_edge, label %.lr.ph

.lr.ph:                                           ; preds = %3, %40
  %.01528 = phi ptr [ %.01429, %40 ], [ %4, %3 ]
  %.01429.in = getelementptr inbounds nuw i8, ptr %.01528, i64 120
  %.01429 = load ptr, ptr %.01429.in, align 8, !tbaa !31
  %5 = getelementptr inbounds nuw i8, ptr %.01528, i64 128
  %6 = load ptr, ptr %5, align 8, !tbaa !32
  %7 = getelementptr inbounds nuw i8, ptr %6, i64 120
  store volatile ptr %.01429, ptr %7, align 8, !tbaa !31
  %8 = getelementptr inbounds nuw i8, ptr %.01429, i64 128
  store volatile ptr %6, ptr %8, align 8, !tbaa !32
  %9 = load volatile i64, ptr getelementptr inbounds nuw (i8, ptr @pmix_psec_globals, i64 264), align 8, !tbaa !33
  %10 = add i64 %9, -1
  store volatile i64 %10, ptr getelementptr inbounds nuw (i8, ptr @pmix_psec_globals, i64 264), align 8, !tbaa !33
  %11 = getelementptr inbounds nuw i8, ptr %.01528, i64 160
  %12 = load ptr, ptr %11, align 8, !tbaa !34
  %13 = getelementptr inbounds nuw i8, ptr %12, i64 240
  %14 = load ptr, ptr %13, align 8, !tbaa !37
  %.not17 = icmp eq ptr %14, null
  br i1 %.not17, label %16, label %15

15:                                               ; preds = %.lr.ph
  tail call void %14() #8
  br label %16

16:                                               ; preds = %.lr.ph, %15
  %17 = tail call i32 @pthread_mutex_lock(ptr noundef %.01528) #8
  %18 = icmp eq i32 %17, 35
  br i1 %18, label %19, label %pmix_obj_update.exit

19:                                               ; preds = %16
  %20 = tail call ptr @__errno_location() #9
  store i32 35, ptr %20, align 4, !tbaa !17
  tail call void @perror(ptr noundef nonnull @.str.4) #10
  tail call void @abort() #11
  unreachable

pmix_obj_update.exit:                             ; preds = %16
  %21 = getelementptr inbounds nuw i8, ptr %.01528, i64 48
  %22 = load i32, ptr %21, align 8, !tbaa !22
  %23 = add nsw i32 %22, -1
  store i32 %23, ptr %21, align 8, !tbaa !22
  %24 = tail call i32 @pthread_mutex_unlock(ptr noundef %.01528) #8
  %25 = icmp eq i32 %23, 0
  br i1 %25, label %26, label %40

26:                                               ; preds = %pmix_obj_update.exit
  %27 = getelementptr inbounds nuw i8, ptr %.01528, i64 40
  %28 = load ptr, ptr %27, align 8, !tbaa !21
  %29 = getelementptr inbounds nuw i8, ptr %28, i64 48
  %30 = load ptr, ptr %29, align 8, !tbaa !40
  %31 = load ptr, ptr %30, align 8, !tbaa !24
  %.not6.i = icmp eq ptr %31, null
  br i1 %.not6.i, label %pmix_obj_run_destructors.exit, label %.lr.ph.i

.lr.ph.i:                                         ; preds = %26, %.lr.ph.i
  %32 = phi ptr [ %34, %.lr.ph.i ], [ %31, %26 ]
  %.07.i = phi ptr [ %33, %.lr.ph.i ], [ %30, %26 ]
  tail call void %32(ptr noundef %.01528) #8
  %33 = getelementptr inbounds nuw i8, ptr %.07.i, i64 8
  %34 = load ptr, ptr %33, align 8, !tbaa !24
  %.not.i = icmp eq ptr %34, null
  br i1 %.not.i, label %pmix_obj_run_destructors.exit, label %.lr.ph.i, !llvm.loop !41

pmix_obj_run_destructors.exit:                    ; preds = %.lr.ph.i, %26
  %35 = getelementptr inbounds nuw i8, ptr %.01528, i64 96
  %36 = load ptr, ptr %35, align 8, !tbaa !42
  %.not18 = icmp eq ptr %36, null
  br i1 %.not18, label %39, label %37

37:                                               ; preds = %pmix_obj_run_destructors.exit
  %38 = getelementptr inbounds nuw i8, ptr %.01528, i64 56
  tail call void %36(ptr noundef nonnull %38, ptr noundef nonnull %.01528) #8
  br label %40

39:                                               ; preds = %pmix_obj_run_destructors.exit
  tail call void @free(ptr noundef nonnull %.01528) #8
  br label %40

40:                                               ; preds = %37, %39, %pmix_obj_update.exit
  %.not = icmp eq ptr %.01429, getelementptr inbounds nuw (i8, ptr @pmix_psec_globals, i64 120)
  br i1 %.not, label %._crit_edge, label %.lr.ph, !llvm.loop !43

._crit_edge:                                      ; preds = %40, %3
  %41 = load ptr, ptr getelementptr inbounds nuw (i8, ptr @pmix_psec_globals, i64 40), align 8, !tbaa !21
  %42 = getelementptr inbounds nuw i8, ptr %41, i64 48
  %43 = load ptr, ptr %42, align 8, !tbaa !40
  %44 = load ptr, ptr %43, align 8, !tbaa !24
  %.not6.i20 = icmp eq ptr %44, null
  br i1 %.not6.i20, label %pmix_obj_run_destructors.exit24, label %.lr.ph.i21

.lr.ph.i21:                                       ; preds = %._crit_edge, %.lr.ph.i21
  %45 = phi ptr [ %47, %.lr.ph.i21 ], [ %44, %._crit_edge ]
  %.07.i22 = phi ptr [ %46, %.lr.ph.i21 ], [ %43, %._crit_edge ]
  tail call void %45(ptr noundef nonnull @pmix_psec_globals) #8
  %46 = getelementptr inbounds nuw i8, ptr %.07.i22, i64 8
  %47 = load ptr, ptr %46, align 8, !tbaa !24
  %.not.i23 = icmp eq ptr %47, null
  br i1 %.not.i23, label %pmix_obj_run_destructors.exit24, label %.lr.ph.i21, !llvm.loop !41

pmix_obj_run_destructors.exit24:                  ; preds = %.lr.ph.i21, %._crit_edge
  %48 = tail call i32 @pmix_mca_base_framework_components_close(ptr noundef nonnull @pmix_psec_base_framework, ptr noundef null) #8
  br label %49

49:                                               ; preds = %0, %pmix_obj_run_destructors.exit24
  %.0 = phi i32 [ %48, %pmix_obj_run_destructors.exit24 ], [ 0, %0 ]
  ret i32 %.0
}